target datalayout = "e-m:e-p270:32:32-p271:32:32-p272:64:64-i64:64-i128:128-f80:128-n8:16:32:64-S128"
target triple = "x86_64-pc-linux-gnu"

%struct.H5D_t = type { %struct.H5O_loc_t, %struct.H5G_name_t, ptr }
%struct.H5O_loc_t = type { ptr, i64, i8 }
%struct.H5G_name_t = type { ptr, ptr, i32 }
%struct.H5D_shared_t = type { i64, i8, i64, ptr, ptr, i64, i64, %struct.H5D_dcpl_cache_t, %struct.H5O_layout_t, i8, i32, [32 x i64], [32 x i64], [32 x i64], %struct.anon.6, %struct.H5D_append_flush_t, ptr, ptr }
%struct.H5D_dcpl_cache_t = type { %struct.H5O_fill_t, %struct.H5O_pline_t, %struct.H5O_efl_t }
%struct.H5O_fill_t = type { %struct.H5O_shared_t, i32, ptr, i64, ptr, i32, i32, i8 }
%struct.H5O_shared_t = type { i32, ptr, i32, %union.anon }
%union.anon = type { %struct.H5O_mesg_loc_t }
%struct.H5O_mesg_loc_t = type { i32, i64 }
%struct.H5O_pline_t = type { %struct.H5O_shared_t, i32, i64, i64, ptr }
%struct.H5O_efl_t = type { i64, i64, i64, ptr }
%struct.H5O_layout_t = type { i32, i32, ptr, %union.anon.0, %struct.H5O_storage_t }
%union.anon.0 = type { %struct.H5O_layout_chunk_t }
%struct.H5O_layout_chunk_t = type { i32, i8, i32, [33 x i32], i32, i32, i64, i64, [33 x i64], [33 x i64], [33 x i64], [33 x i64], %union.anon.1 }
%union.anon.1 = type { %struct.H5O_layout_chunk_earray_t }
%struct.H5O_layout_chunk_earray_t = type { %struct.anon.2, i32, [33 x i32], [33 x i64], [33 x i64] }
%struct.anon.2 = type { i8, i8, i8, i8, i8 }
%struct.H5O_storage_t = type { i32, %union.anon.4 }
%union.anon.4 = type { %struct.H5O_storage_virtual_t }
%struct.H5O_storage_virtual_t = type { %struct.H5HG_t, i64, ptr, i64, [32 x i64], i32, i64, i64, i64, i8 }
%struct.H5HG_t = type { i64, i64 }
%struct.anon.6 = type { %struct.H5D_rdcdc_t, %struct.H5D_rdcc_t }
%struct.H5D_rdcdc_t = type { ptr, i64, i64, i64, i8 }
%struct.H5D_rdcc_t = type { %struct.anon.7, i64, i64, double, ptr, ptr, ptr, i64, i32, %struct.H5D_chunk_cached_t, ptr, ptr, ptr, ptr, [32 x i64], [32 x i64], [32 x i32] }
%struct.anon.7 = type { i32, i32, i32, i32 }
%struct.H5D_chunk_cached_t = type { i8, [33 x i64], i64, i32, i64, i32 }
%struct.H5D_append_flush_t = type { i32, [32 x i64], ptr, ptr }
%struct.H5O_storage_compact_t = type { i8, i64, ptr }

@H5D_init_g = external global i8, align 1
@H5_libterm_g = external global i8, align 1
@.str = private unnamed_addr constant [104 x i8] c"generated/home/dtcxzyw/WorkSpace/Projects/compilers/llvm-opt-benchmark/bench/hdf5/hdf5/src/H5Dcompact.c\00", align 1
@H5E_DATASET_g = external global i64, align 8
@H5E_CANTINIT_g = external global i64, align 8
@__func__.H5D__compact_construct = private unnamed_addr constant [23 x i8] c"H5D__compact_construct\00", align 1
@H5E_UNSUPPORTED_g = external global i64, align 8
@.str.17 = private unnamed_addr constant [39 x i8] c"extendible compact dataset not allowed\00", align 1
@.str.18 = private unnamed_addr constant [64 x i8] c"compact dataset size is bigger than header message maximum size\00", align 1

; Function Attrs: nounwind uwtable
define internal i32 @H5D__compact_construct(ptr noundef %0, ptr noundef %1) #0 {
  %3 = alloca ptr, align 8
  %4 = alloca ptr, align 8
  %5 = alloca i64, align 8
  %6 = alloca i64, align 8
  %7 = alloca i64, align 8
  %8 = alloca i32, align 4
  %9 = alloca i32, align 4
  %10 = alloca i8, align 1
  store ptr %0, ptr %3, align 8, !tbaa !3
  store ptr %1, ptr %4, align 8, !tbaa !8
  call void @llvm.lifetime.start.p0(i64 8, ptr %5) #6
  call void @llvm.lifetime.start.p0(i64 8, ptr %6) #6
  call void @llvm.lifetime.start.p0(i64 8, ptr %7) #6
  call void @llvm.lifetime.start.p0(i64 4, ptr %8) #6
  call void @llvm.lifetime.start.p0(i64 4, ptr %9) #6
  store i32 0, ptr %9, align 4, !tbaa !10
  call void @llvm.lifetime.start.p0(i64 1, ptr %10) #6
  store i8 0, ptr %10, align 1, !tbaa !12
  %11 = load i8, ptr @H5D_init_g, align 1, !tbaa !12, !range !14, !noundef !15
  %12 = trunc i8 %11 to i1
  br i1 %12, label %17, label %13

13:                                               ; preds = %2
  %14 = load i8, ptr @H5_libterm_g, align 1, !tbaa !12, !range !14, !noundef !15
  %15 = trunc i8 %14 to i1
  %16 = xor i1 %15, true
  br label %17

17:                                               ; preds = %13, %2
  %18 = phi i1 [ true, %2 ], [ %16, %13 ]
  %19 = xor i1 %18, true
  %20 = xor i1 %19, true
  %21 = zext i1 %20 to i32
  %22 = sext i32 %21 to i64
  %23 = call i64 @llvm.expect.i64(i64 %22, i64 1)
  %24 = icmp ne i64 %23, 0
  br i1 %24, label %25, label %140

25:                                               ; preds = %17
  store i32 0, ptr %8, align 4, !tbaa !10
  br label %26

26:                                               ; preds = %72, %25
  %27 = load i32, ptr %8, align 4, !tbaa !10
  %28 = load ptr, ptr %4, align 8, !tbaa !8
  %29 = getelementptr inbounds nuw %struct.H5D_t, ptr %28, i32 0, i32 2
  %30 = load ptr, ptr %29, align 8, !tbaa !16
  %31 = getelementptr inbounds nuw %struct.H5D_shared_t, ptr %30, i32 0, i32 10
  %32 = load i32, ptr %31, align 4, !tbaa !23
  %33 = icmp ult i32 %27, %32
  br i1 %33, label %34, label %75

34:                                               ; preds = %26
  %35 = load ptr, ptr %4, align 8, !tbaa !8
  %36 = getelementptr inbounds nuw %struct.H5D_t, ptr %35, i32 0, i32 2
  %37 = load ptr, ptr %36, align 8, !tbaa !16
  %38 = getelementptr inbounds nuw %struct.H5D_shared_t, ptr %37, i32 0, i32 13
  %39 = load i32, ptr %8, align 4, !tbaa !10
  %40 = zext i32 %39 to i64
  %41 = getelementptr inbounds nuw [32 x i64], ptr %38, i64 0, i64 %40
  %42 = load i64, ptr %41, align 8, !tbaa !49
  %43 = load ptr, ptr %4, align 8, !tbaa !8
  %44 = getelementptr inbounds nuw %struct.H5D_t, ptr %43, i32 0, i32 2
  %45 = load ptr, ptr %44, align 8, !tbaa !16
  %46 = getelementptr inbounds nuw %struct.H5D_shared_t, ptr %45, i32 0, i32 11
  %47 = load i32, ptr %8, align 4, !tbaa !10
  %48 = zext i32 %47 to i64
  %49 = getelementptr inbounds nuw [32 x i64], ptr %46, i64 0, i64 %48
  %50 = load i64, ptr %49, align 8, !tbaa !49
  %51 = icmp ugt i64 %42, %50
  br i1 %51, label %52, label %71

52:                                               ; preds = %34
  br label %53

53:                                               ; preds = %52
  br label %54

54:                                               ; preds = %53
  br label %55

55:                                               ; preds = %54
  %56 = load i64, ptr @H5E_DATASET_g, align 8, !tbaa !49
  %57 = load i64, ptr @H5E_UNSUPPORTED_g, align 8, !tbaa !49
  %58 = call i32 (ptr, ptr, i32, i64, i64, ptr, ...) @H5E_printf_stack(ptr noundef @.str, ptr noundef @__func__.H5D__compact_construct, i32 noundef 177, i64 noundef %56, i64 noundef %57, ptr noundef @.str.17)
  br label %59

59:                                               ; preds = %55
  br label %60

60:                                               ; preds = %59
  store i8 1, ptr %10, align 1, !tbaa !12
  %61 = load i8, ptr %10, align 1, !tbaa !12, !range !14, !noundef !15
  %62 = trunc i8 %61 to i1
  %63 = zext i1 %62 to i8
  store i8 %63, ptr %10, align 1, !tbaa !12
  br label %64

64:                                               ; preds = %60
  br label %65

65:                                               ; preds = %64
  br label %66

66:                                               ; preds = %65
  store i32 -1, ptr %9, align 4, !tbaa !10
  br label %139

67:                                               ; No predecessors!
  br label %68

68:                                               ; preds = %67
  br label %69

69:                                               ; preds = %68
  br label %70

70:                                               ; preds = %69
  br label %71

71:                                               ; preds = %70, %34
  br label %72

72:                                               ; preds = %71
  %73 = load i32, ptr %8, align 4, !tbaa !10
  %74 = add i32 %73, 1
  store i32 %74, ptr %8, align 4, !tbaa !10
  br label %26, !llvm.loop !50

75:                                               ; preds = %26
  %76 = load ptr, ptr %4, align 8, !tbaa !8
  %77 = getelementptr inbounds nuw %struct.H5D_t, ptr %76, i32 0, i32 2
  %78 = load ptr, ptr %77, align 8, !tbaa !16
  %79 = getelementptr inbounds nuw %struct.H5D_shared_t, ptr %78, i32 0, i32 4
  %80 = load ptr, ptr %79, align 8, !tbaa !52
  %81 = call i64 @H5S_get_simple_extent_npoints(ptr noundef %80)
  store i64 %81, ptr %5, align 8, !tbaa !49
  %82 = load ptr, ptr %4, align 8, !tbaa !8
  %83 = getelementptr inbounds nuw %struct.H5D_t, ptr %82, i32 0, i32 2
  %84 = load ptr, ptr %83, align 8, !tbaa !16
  %85 = getelementptr inbounds nuw %struct.H5D_shared_t, ptr %84, i32 0, i32 3
  %86 = load ptr, ptr %85, align 8, !tbaa !53
  %87 = call i64 @H5T_get_size(ptr noundef %86)
  store i64 %87, ptr %6, align 8, !tbaa !49
  %88 = load i64, ptr %6, align 8, !tbaa !49
  %89 = load i64, ptr %5, align 8, !tbaa !49
  %90 = mul i64 %88, %89
  store i64 %90, ptr %6, align 8, !tbaa !49
  br label %91

91:                                               ; preds = %75
  %92 = load i64, ptr %6, align 8, !tbaa !49
  %93 = load ptr, ptr %4, align 8, !tbaa !8
  %94 = getelementptr inbounds nuw %struct.H5D_t, ptr %93, i32 0, i32 2
  %95 = load ptr, ptr %94, align 8, !tbaa !16
  %96 = getelementptr inbounds nuw %struct.H5D_shared_t, ptr %95, i32 0, i32 8
  %97 = getelementptr inbounds nuw %struct.H5O_layout_t, ptr %96, i32 0, i32 4
  %98 = getelementptr inbounds nuw %struct.H5O_storage_t, ptr %97, i32 0, i32 1
  %99 = getelementptr inbounds nuw %struct.H5O_storage_compact_t, ptr %98, i32 0, i32 1
  store i64 %92, ptr %99, align 8, !tbaa !54
  br label %100

100:                                              ; preds = %91
  br label %101

101:                                              ; preds = %100
  %102 = load ptr, ptr %3, align 8, !tbaa !3
  %103 = load ptr, ptr %4, align 8, !tbaa !8
  %104 = getelementptr inbounds nuw %struct.H5D_t, ptr %103, i32 0, i32 2
  %105 = load ptr, ptr %104, align 8, !tbaa !16
  %106 = getelementptr inbounds nuw %struct.H5D_shared_t, ptr %105, i32 0, i32 8
  %107 = call i64 @H5D__layout_meta_size(ptr noundef %102, ptr noundef %106, i1 noundef zeroext false)
  %108 = sub i64 65536, %107
  store i64 %108, ptr %7, align 8, !tbaa !49
  %109 = load ptr, ptr %4, align 8, !tbaa !8
  %110 = getelementptr inbounds nuw %struct.H5D_t, ptr %109, i32 0, i32 2
  %111 = load ptr, ptr %110, align 8, !tbaa !16
  %112 = getelementptr inbounds nuw %struct.H5D_shared_t, ptr %111, i32 0, i32 8
  %113 = getelementptr inbounds nuw %struct.H5O_layout_t, ptr %112, i32 0, i32 4
  %114 = getelementptr inbounds nuw %struct.H5O_storage_t, ptr %113, i32 0, i32 1
  %115 = getelementptr inbounds nuw %struct.H5O_storage_compact_t, ptr %114, i32 0, i32 1
  %116 = load i64, ptr %115, align 8, !tbaa !54
  %117 = load i64, ptr %7, align 8, !tbaa !49
  %118 = icmp ugt i64 %116, %117
  br i1 %118, label %119, label %138

119:                                              ; preds = %101
  br label %120

120:                                              ; preds = %119
  br label %121

121:                                              ; preds = %120
  br label %122

122:                                              ; preds = %121
  %123 = load i64, ptr @H5E_DATASET_g, align 8, !tbaa !49
  %124 = load i64, ptr @H5E_CANTINIT_g, align 8, !tbaa !49
  %125 = call i32 (ptr, ptr, i32, i64, i64, ptr, ...) @H5E_printf_stack(ptr noundef @.str, ptr noundef @__func__.H5D__compact_construct, i32 noundef 196, i64 noundef %123, i64 noundef %124, ptr noundef @.str.18)
  br label %126

126:                                              ; preds = %122
  br label %127

127:                                              ; preds = %126
  store i8 1, ptr %10, align 1, !tbaa !12
  %128 = load i8, ptr %10, align 1, !tbaa !12, !range !14, !noundef !15
  %129 = trunc i8 %128 to i1
  %130 = zext i1 %129 to i8
  store i8 %130, ptr %10, align 1, !tbaa !12
  br label %131

131:                                              ; preds = %127
  br label %132

132:                                              ; preds = %131
  br label %133

133:                                              ; preds = %132
  store i32 -1, ptr %9, align 4, !tbaa !10
  br label %139

134:                                              ; No predecessors!
  br label %135

135:                                              ; preds = %134
  br label %136

136:                                              ; preds = %135
  br label %137

137:                                              ; preds = %136
  br label %138

138:                                              ; preds = %137, %101
  br label %139

139:                                              ; preds = %138, %133, %66
  br label %140

140:                                              ; preds = %139, %17
  %141 = load i32, ptr %9, align 4, !tbaa !10
  call void @llvm.lifetime.end.p0(i64 1, ptr %10) #6
  call void @llvm.lifetime.end.p0(i64 4, ptr %9) #6
  call void @llvm.lifetime.end.p0(i64 4, ptr %8) #6
  call void @llvm.lifetime.end.p0(i64 8, ptr %7) #6
  call void @llvm.lifetime.end.p0(i64 8, ptr %6) #6
  call void @llvm.lifetime.end.p0(i64 8, ptr %5) #6
  ret i32 %141
}