; Function Attrs: nounwind uwtable
define internal range(i32 -1, 1) i32 @H5D__compact_construct(ptr noundef %0, ptr noundef readonly captures(none) %1) #0 {
  %3 = load i8, ptr @H5D_init_g, align 1, !tbaa !3, !range !7, !noundef !8
  %4 = trunc nuw i8 %3 to i1
  %5 = load i8, ptr @H5_libterm_g, align 1, !range !7
  %6 = trunc nuw i8 %5 to i1
  %7 = xor i1 %6, true
  %8 = select i1 %4, i1 true, i1 %7
  br i1 %8, label %.preheader, label %48, !prof !9

.preheader:                                       ; preds = %2
  %9 = getelementptr inbounds nuw i8, ptr %1, i64 48
  %10 = load ptr, ptr %9, align 8, !tbaa !10
  %11 = getelementptr inbounds nuw i8, ptr %10, i64 2508
  %12 = load i32, ptr %11, align 4, !tbaa !20
  %.not = icmp eq i32 %12, 0
  br i1 %.not, label %._crit_edge, label %.lr.ph

.lr.ph:                                           ; preds = %.preheader
  %13 = getelementptr inbounds nuw i8, ptr %10, i64 3024
  %14 = getelementptr inbounds nuw i8, ptr %10, i64 2512
  %wide.trip.count = zext i32 %12 to i64
  br label %16

15:                                               ; preds = %16
  %indvars.iv.next = add nuw nsw i64 %indvars.iv, 1
  %exitcond.not = icmp eq i64 %indvars.iv.next, %wide.trip.count
  br i1 %exitcond.not, label %._crit_edge, label %16, !llvm.loop !46

16:                                               ; preds = %.lr.ph, %15
  %indvars.iv = phi i64 [ 0, %.lr.ph ], [ %indvars.iv.next, %15 ]
  %17 = getelementptr inbounds nuw [32 x i64], ptr %13, i64 0, i64 %indvars.iv
  %18 = load i64, ptr %17, align 8, !tbaa !48
  %19 = getelementptr inbounds nuw [32 x i64], ptr %14, i64 0, i64 %indvars.iv
  %20 = load i64, ptr %19, align 8, !tbaa !48
  %21 = icmp ugt i64 %18, %20
  br i1 %21, label %22, label %15

22:                                               ; preds = %16
  %23 = load i64, ptr @H5E_DATASET_g, align 8, !tbaa !48
  %24 = load i64, ptr @H5E_UNSUPPORTED_g, align 8, !tbaa !48
  %25 = tail call i32 (ptr, ptr, i32, i64, i64, ptr, ...) @H5E_printf_stack(ptr noundef nonnull @.str, ptr noundef nonnull @__func__.H5D__compact_construct, i32 noundef 177, i64 noundef %23, i64 noundef %24, ptr noundef nonnull @.str.17) #8
  br label %48

._crit_edge:                                      ; preds = %15, %.preheader
  %26 = getelementptr inbounds nuw i8, ptr %10, i64 32
  %27 = load ptr, ptr %26, align 8, !tbaa !49
  %28 = tail call i64 @H5S_get_simple_extent_npoints(ptr noundef %27) #8
  %29 = load ptr, ptr %9, align 8, !tbaa !10
  %30 = getelementptr inbounds nuw i8, ptr %29, i64 24
  %31 = load ptr, ptr %30, align 8, !tbaa !50
  %32 = tail call i64 @H5T_get_size(ptr noundef %31) #8
  %33 = mul i64 %32, %28
  %34 = load ptr, ptr %9, align 8, !tbaa !10
  %35 = getelementptr inbounds nuw i8, ptr %34, i64 2176
  store i64 %33, ptr %35, align 8, !tbaa !51
  %36 = load ptr, ptr %9, align 8, !tbaa !10
  %37 = getelementptr inbounds nuw i8, ptr %36, i64 248
  %38 = tail call i64 @H5D__layout_meta_size(ptr noundef %0, ptr noundef nonnull %37, i1 noundef zeroext false) #8
  %39 = sub i64 65536, %38
  %40 = load ptr, ptr %9, align 8, !tbaa !10
  %41 = getelementptr inbounds nuw i8, ptr %40, i64 2176
  %42 = load i64, ptr %41, align 8, !tbaa !51
  %43 = icmp ugt i64 %42, %39
  br i1 %43, label %44, label %48

44:                                               ; preds = %._crit_edge
  %45 = load i64, ptr @H5E_DATASET_g, align 8, !tbaa !48
  %46 = load i64, ptr @H5E_CANTINIT_g, align 8, !tbaa !48
  %47 = tail call i32 (ptr, ptr, i32, i64, i64, ptr, ...) @H5E_printf_stack(ptr noundef nonnull @.str, ptr noundef nonnull @__func__.H5D__compact_construct, i32 noundef 196, i64 noundef %45, i64 noundef %46, ptr noundef nonnull @.str.18) #8
  br label %48

48:                                               ; preds = %22, %44, %._crit_edge, %2
  %.0 = phi i32 [ -1, %22 ], [ -1, %44 ], [ 0, %._crit_edge ], [ 0, %2 ]
  ret i32 %.0
}